; Function Attrs: nounwind uwtable
define void @Pdr_QueueClean(ptr noundef captures(none) %0) local_unnamed_addr #9 {
  %2 = getelementptr inbounds nuw i8, ptr %0, i64 120
  %3 = load ptr, ptr %2, align 8
  %4 = icmp eq ptr %3, null
  br i1 %4, label %._crit_edge, label %.lr.ph

.lr.ph:                                           ; preds = %1
  %5 = getelementptr inbounds nuw i8, ptr %0, i64 344
  br label %6

6:                                                ; preds = %.lr.ph, %6
  %7 = phi ptr [ %3, %.lr.ph ], [ %12, %6 ]
  %8 = getelementptr inbounds nuw i8, ptr %7, i64 32
  %9 = load ptr, ptr %8, align 8
  store ptr %9, ptr %2, align 8
  tail call void @Pdr_OblDeref(ptr noundef nonnull %7)
  %10 = load i32, ptr %5, align 8
  %11 = add nsw i32 %10, -1
  store i32 %11, ptr %5, align 8
  tail call void @Pdr_OblDeref(ptr noundef nonnull %7)
  %12 = load ptr, ptr %2, align 8
  %13 = icmp eq ptr %12, null
  br i1 %13, label %._crit_edge, label %6, !llvm.loop !22

._crit_edge:                                      ; preds = %6, %1
  ret void
}